target datalayout = "e-m:e-p270:32:32-p271:32:32-p272:64:64-i64:64-i128:128-f80:128-n8:16:32:64-S128"
target triple = "x86_64-pc-linux-gnu"

%struct.PaPulseAudio_HostApiRepresentation = type { %struct.PaUtilHostApiRepresentation, %struct.PaUtilStreamInterface, %struct.PaUtilStreamInterface, ptr, i32, [1024 x %struct.PaDeviceInfo], [1024 x ptr], %struct.pa_sample_spec, ptr, ptr, ptr, i32, ptr }
%struct.PaUtilHostApiRepresentation = type { %struct.PaUtilPrivatePaFrontHostApiInfo, %struct.PaHostApiInfo, ptr, ptr, ptr, ptr }
%struct.PaUtilPrivatePaFrontHostApiInfo = type { i64 }
%struct.PaHostApiInfo = type { i32, i32, ptr, i32, i32, i32 }
%struct.PaUtilStreamInterface = type { ptr, ptr, ptr, ptr, ptr, ptr, ptr, ptr, ptr, ptr, ptr, ptr }
%struct.PaDeviceInfo = type { i32, ptr, i32, i32, i32, double, double, double, double, double }
%struct.pa_sample_spec = type { i32, i32, i8 }

; Function Attrs: nounwind uwtable
define internal i32 @PA_CONTEXT_IS_GOOD(i32 noundef %0) #0 {
  %2 = alloca i32, align 4
  store i32 %0, ptr %2, align 4
  %3 = load i32, ptr %2, align 4
  %4 = icmp eq i32 %3, 1
  br i1 %4, label %14, label %5

5:                                                ; preds = %1
  %6 = load i32, ptr %2, align 4
  %7 = icmp eq i32 %6, 2
  br i1 %7, label %14, label %8

8:                                                ; preds = %5
  %9 = load i32, ptr %2, align 4
  %10 = icmp eq i32 %9, 3
  br i1 %10, label %14, label %11

11:                                               ; preds = %8
  %12 = load i32, ptr %2, align 4
  %13 = icmp eq i32 %12, 4
  br label %14

14:                                               ; preds = %11, %8, %5, %1
  %15 = phi i1 [ true, %8 ], [ true, %5 ], [ true, %1 ], [ %13, %11 ]
  %16 = zext i1 %15 to i32
  ret i32 %16
}

; Function Attrs: nounwind uwtable
define i32 @PaPulseAudio_CheckConnection(ptr noundef %0) #0 {
  %2 = alloca i32, align 4
  %3 = alloca ptr, align 8
  %4 = alloca i32, align 4
  %5 = alloca i32, align 4
  store ptr %0, ptr %3, align 8
  store i32 -1, ptr %4, align 4
  %6 = load ptr, ptr %3, align 8
  %7 = icmp eq ptr %6, null
  br i1 %7, label %8, label %10

8:                                                ; preds = %1
  %9 = load i32, ptr %4, align 4
  store i32 %9, ptr %2, align 4
  br label %31

10:                                               ; preds = %1
  %11 = load ptr, ptr %3, align 8
  %12 = getelementptr inbounds nuw %struct.PaPulseAudio_HostApiRepresentation, ptr %11, i32 0, i32 10
  %13 = load ptr, ptr %12, align 8
  %14 = call i32 @pa_context_get_state(ptr noundef %13)
  store i32 %14, ptr %5, align 4
  %15 = load i32, ptr %5, align 4
  %16 = call i32 @PA_CONTEXT_IS_GOOD(i32 noundef %15)
  %17 = icmp ne i32 %16, 0
  br i1 %17, label %18, label %23

18:                                               ; preds = %10
  %19 = load i32, ptr %5, align 4
  switch i32 %19, label %22 [
    i32 4, label %20
    i32 1, label %21
    i32 2, label %21
    i32 3, label %21
  ]

20:                                               ; preds = %18
  store i32 0, ptr %4, align 4
  br label %22

21:                                               ; preds = %18, %18, %18
  br label %22

22:                                               ; preds = %21, %20, %18
  br label %29

23:                                               ; preds = %10
  store i32 1, ptr %4, align 4
  %24 = load i32, ptr %5, align 4
  switch i32 %24, label %28 [
    i32 0, label %25
    i32 6, label %26
    i32 5, label %27
  ]

25:                                               ; preds = %23
  br label %28

26:                                               ; preds = %23
  br label %28

27:                                               ; preds = %23
  br label %28

28:                                               ; preds = %27, %26, %25, %23
  br label %29

29:                                               ; preds = %28, %22
  %30 = load i32, ptr %4, align 4
  store i32 %30, ptr %2, align 4
  br label %31

31:                                               ; preds = %29, %8
  %32 = load i32, ptr %2, align 4
  ret i32 %32
}