; Function Attrs: nounwind uwtable
define range(i32 -1, 2) i32 @PaPulseAudio_CheckConnection(ptr noundef readonly %0) local_unnamed_addr #0 {
  %2 = icmp eq ptr %0, null
  br i1 %2, label %9, label %3

3:                                                ; preds = %1
  %4 = getelementptr inbounds nuw i8, ptr %0, i64 82232
  %5 = load ptr, ptr %4, align 8
  %6 = tail call i32 @pa_context_get_state(ptr noundef %5) #13
  %7 = add i32 %6, -5
  %narrow.i = icmp ult i32 %7, -4
  br i1 %narrow.i, label %9, label %8

8:                                                ; preds = %3
  %cond = icmp ne i32 %6, 4
  %spec.select = sext i1 %cond to i32
  br label %9

9:                                                ; preds = %8, %3, %1
  %.0 = phi i32 [ -1, %1 ], [ %spec.select, %8 ], [ 1, %3 ]
  ret i32 %.0
}